target datalayout = "e-m:e-p270:32:32-p271:32:32-p272:64:64-i64:64-i128:128-f80:128-n8:16:32:64-S128"
target triple = "x86_64-pc-linux-gnu"

; Function Attrs: mustprogress uwtable
define internal void @_ZN7V3Sched12_GLOBAL__N_116VirtIfaceVisitor5visitEP10AstAssignW(ptr noundef nonnull align 8 dereferenceable(176) %0, ptr noundef %1) unnamed_addr #4 align 2 {
  %3 = alloca ptr, align 8
  %4 = alloca ptr, align 8
  store ptr %0, ptr %3, align 8, !tbaa !82
  store ptr %1, ptr %4, align 8, !tbaa !136
  %5 = load ptr, ptr %4, align 8, !tbaa !136
  %6 = call noundef zeroext i1 @_ZN7V3Sched12_GLOBAL__N_116VirtIfaceVisitor17writesToVirtIfaceEPK7AstNode(ptr noundef %5)
  br i1 %6, label %7, label %10

7:                                                ; preds = %2
  %8 = load ptr, ptr %4, align 8, !tbaa !136
  %9 = call noundef ptr @_ZN10AstAssignW15convertToAlwaysEv(ptr noundef nonnull align 8 dereferenceable(152) %8)
  br label %10

10:                                               ; preds = %7, %2
  ret void
}