; Function Attrs: mustprogress uwtable
define internal void @_ZN7V3Sched12_GLOBAL__N_116VirtIfaceVisitor5visitEP10AstAssignW(ptr nonnull readnone align 8 captures(none) %0, ptr noundef %1) unnamed_addr #3 align 2 {
  %3 = tail call fastcc noundef zeroext i1 @_ZN7V3Sched12_GLOBAL__N_116VirtIfaceVisitor17writesToVirtIfaceEPK7AstNode(ptr noundef %1)
  br i1 %3, label %4, label %6

4:                                                ; preds = %2
  %5 = tail call noundef ptr @_ZN10AstAssignW15convertToAlwaysEv(ptr noundef nonnull align 8 dereferenceable(152) %1)
  br label %6

6:                                                ; preds = %4, %2
  ret void
}